target datalayout = "e-m:e-p270:32:32-p271:32:32-p272:64:64-i64:64-i128:128-f80:128-n8:16:32:64-S128"
target triple = "x86_64-pc-linux-gnu"

%struct.ResourceOwnerData = type { ptr, ptr, ptr, ptr, i8, i8, i8, i8, i32, [32 x %struct.ResourceElem], ptr, i32, i32, [15 x ptr] }
%struct.ResourceElem = type { i64, ptr }
%struct.ResourceOwnerDesc = type { ptr, i32, i32, ptr, ptr }

@.str.1 = private unnamed_addr constant [11 x i8] c"resowner.c\00", align 1
@.str.3 = private unnamed_addr constant [56 x i8] c"ResourceOwnerForget called for %s after release started\00", align 1
@__func__.ResourceOwnerReleaseAllOfKind = private unnamed_addr constant [30 x i8] c"ResourceOwnerReleaseAllOfKind\00", align 1

; Function Attrs: nounwind uwtable
define dso_local void @ResourceOwnerReleaseAllOfKind(ptr noundef %0, ptr noundef %1) #0 {
  %3 = alloca ptr, align 8
  %4 = alloca ptr, align 8
  %5 = alloca i32, align 4
  %6 = alloca i64, align 8
  %7 = alloca i32, align 4
  %8 = alloca i64, align 8
  store ptr %0, ptr %3, align 8
  store ptr %1, ptr %4, align 8
  %9 = load ptr, ptr %3, align 8
  %10 = getelementptr inbounds nuw %struct.ResourceOwnerData, ptr %9, i32 0, i32 4
  %11 = load i8, ptr %10, align 8, !range !4, !noundef !5
  %12 = trunc i8 %11 to i1
  br i1 %12, label %13, label %26

13:                                               ; preds = %2
  br label %14

14:                                               ; preds = %13
  br i1 true, label %15, label %17

15:                                               ; preds = %14
  %16 = call zeroext i1 @errstart_cold(i32 noundef 21, ptr noundef null) #7
  br i1 %16, label %19, label %24

17:                                               ; preds = %14
  %18 = call zeroext i1 @errstart(i32 noundef 21, ptr noundef null)
  br i1 %18, label %19, label %24

19:                                               ; preds = %17, %15
  %20 = load ptr, ptr %4, align 8
  %21 = getelementptr inbounds nuw %struct.ResourceOwnerDesc, ptr %20, i32 0, i32 0
  %22 = load ptr, ptr %21, align 8
  %23 = call i32 (ptr, ...) @errmsg_internal(ptr noundef @.str.3, ptr noundef %22)
  call void @errfinish(ptr noundef @.str.1, i32 noundef 805, ptr noundef @__func__.ResourceOwnerReleaseAllOfKind)
  br label %24

24:                                               ; preds = %19, %17, %15
  unreachable

25:                                               ; No predecessors!
  br label %26

26:                                               ; preds = %25, %2
  %27 = load ptr, ptr %3, align 8
  %28 = getelementptr inbounds nuw %struct.ResourceOwnerData, ptr %27, i32 0, i32 4
  store i8 1, ptr %28, align 8
  call void @llvm.lifetime.start.p0(i64 4, ptr %5) #6
  store i32 0, ptr %5, align 4
  br label %29

29:                                               ; preds = %80, %26
  %30 = load i32, ptr %5, align 4
  %31 = load ptr, ptr %3, align 8
  %32 = getelementptr inbounds nuw %struct.ResourceOwnerData, ptr %31, i32 0, i32 7
  %33 = load i8, ptr %32, align 1
  %34 = zext i8 %33 to i32
  %35 = icmp slt i32 %30, %34
  br i1 %35, label %37, label %36

36:                                               ; preds = %29
  call void @llvm.lifetime.end.p0(i64 4, ptr %5) #6
  br label %83

37:                                               ; preds = %29
  %38 = load ptr, ptr %3, align 8
  %39 = getelementptr inbounds nuw %struct.ResourceOwnerData, ptr %38, i32 0, i32 9
  %40 = load i32, ptr %5, align 4
  %41 = sext i32 %40 to i64
  %42 = getelementptr inbounds [32 x %struct.ResourceElem], ptr %39, i64 0, i64 %41
  %43 = getelementptr inbounds nuw %struct.ResourceElem, ptr %42, i32 0, i32 1
  %44 = load ptr, ptr %43, align 8
  %45 = load ptr, ptr %4, align 8
  %46 = icmp eq ptr %44, %45
  br i1 %46, label %47, label %79

47:                                               ; preds = %37
  call void @llvm.lifetime.start.p0(i64 8, ptr %6) #6
  %48 = load ptr, ptr %3, align 8
  %49 = getelementptr inbounds nuw %struct.ResourceOwnerData, ptr %48, i32 0, i32 9
  %50 = load i32, ptr %5, align 4
  %51 = sext i32 %50 to i64
  %52 = getelementptr inbounds [32 x %struct.ResourceElem], ptr %49, i64 0, i64 %51
  %53 = getelementptr inbounds nuw %struct.ResourceElem, ptr %52, i32 0, i32 0
  %54 = load i64, ptr %53, align 8
  store i64 %54, ptr %6, align 8
  %55 = load ptr, ptr %3, align 8
  %56 = getelementptr inbounds nuw %struct.ResourceOwnerData, ptr %55, i32 0, i32 9
  %57 = load i32, ptr %5, align 4
  %58 = sext i32 %57 to i64
  %59 = getelementptr inbounds [32 x %struct.ResourceElem], ptr %56, i64 0, i64 %58
  %60 = load ptr, ptr %3, align 8
  %61 = getelementptr inbounds nuw %struct.ResourceOwnerData, ptr %60, i32 0, i32 9
  %62 = load ptr, ptr %3, align 8
  %63 = getelementptr inbounds nuw %struct.ResourceOwnerData, ptr %62, i32 0, i32 7
  %64 = load i8, ptr %63, align 1
  %65 = zext i8 %64 to i32
  %66 = sub i32 %65, 1
  %67 = sext i32 %66 to i64
  %68 = getelementptr inbounds [32 x %struct.ResourceElem], ptr %61, i64 0, i64 %67
  call void @llvm.memcpy.p0.p0.i64(ptr align 8 %59, ptr align 8 %68, i64 16, i1 false)
  %69 = load ptr, ptr %3, align 8
  %70 = getelementptr inbounds nuw %struct.ResourceOwnerData, ptr %69, i32 0, i32 7
  %71 = load i8, ptr %70, align 1
  %72 = add i8 %71, -1
  store i8 %72, ptr %70, align 1
  %73 = load i32, ptr %5, align 4
  %74 = add i32 %73, -1
  store i32 %74, ptr %5, align 4
  %75 = load ptr, ptr %4, align 8
  %76 = getelementptr inbounds nuw %struct.ResourceOwnerDesc, ptr %75, i32 0, i32 3
  %77 = load ptr, ptr %76, align 8
  %78 = load i64, ptr %6, align 8
  call void %77(i64 noundef %78)
  call void @llvm.lifetime.end.p0(i64 8, ptr %6) #6
  br label %79

79:                                               ; preds = %47, %37
  br label %80

80:                                               ; preds = %79
  %81 = load i32, ptr %5, align 4
  %82 = add i32 %81, 1
  store i32 %82, ptr %5, align 4
  br label %29, !llvm.loop !13

83:                                               ; preds = %36
  call void @llvm.lifetime.start.p0(i64 4, ptr %7) #6
  store i32 0, ptr %7, align 4
  br label %84

84:                                               ; preds = %134, %83
  %85 = load i32, ptr %7, align 4
  %86 = load ptr, ptr %3, align 8
  %87 = getelementptr inbounds nuw %struct.ResourceOwnerData, ptr %86, i32 0, i32 11
  %88 = load i32, ptr %87, align 8
  %89 = icmp ult i32 %85, %88
  br i1 %89, label %91, label %90

90:                                               ; preds = %84
  call void @llvm.lifetime.end.p0(i64 4, ptr %7) #6
  br label %137

91:                                               ; preds = %84
  %92 = load ptr, ptr %3, align 8
  %93 = getelementptr inbounds nuw %struct.ResourceOwnerData, ptr %92, i32 0, i32 10
  %94 = load ptr, ptr %93, align 8
  %95 = load i32, ptr %7, align 4
  %96 = sext i32 %95 to i64
  %97 = getelementptr inbounds %struct.ResourceElem, ptr %94, i64 %96
  %98 = getelementptr inbounds nuw %struct.ResourceElem, ptr %97, i32 0, i32 1
  %99 = load ptr, ptr %98, align 8
  %100 = load ptr, ptr %4, align 8
  %101 = icmp eq ptr %99, %100
  br i1 %101, label %102, label %133

102:                                              ; preds = %91
  call void @llvm.lifetime.start.p0(i64 8, ptr %8) #6
  %103 = load ptr, ptr %3, align 8
  %104 = getelementptr inbounds nuw %struct.ResourceOwnerData, ptr %103, i32 0, i32 10
  %105 = load ptr, ptr %104, align 8
  %106 = load i32, ptr %7, align 4
  %107 = sext i32 %106 to i64
  %108 = getelementptr inbounds %struct.ResourceElem, ptr %105, i64 %107
  %109 = getelementptr inbounds nuw %struct.ResourceElem, ptr %108, i32 0, i32 0
  %110 = load i64, ptr %109, align 8
  store i64 %110, ptr %8, align 8
  %111 = load ptr, ptr %3, align 8
  %112 = getelementptr inbounds nuw %struct.ResourceOwnerData, ptr %111, i32 0, i32 10
  %113 = load ptr, ptr %112, align 8
  %114 = load i32, ptr %7, align 4
  %115 = sext i32 %114 to i64
  %116 = getelementptr inbounds %struct.ResourceElem, ptr %113, i64 %115
  %117 = getelementptr inbounds nuw %struct.ResourceElem, ptr %116, i32 0, i32 0
  store i64 0, ptr %117, align 8
  %118 = load ptr, ptr %3, align 8
  %119 = getelementptr inbounds nuw %struct.ResourceOwnerData, ptr %118, i32 0, i32 10
  %120 = load ptr, ptr %119, align 8
  %121 = load i32, ptr %7, align 4
  %122 = sext i32 %121 to i64
  %123 = getelementptr inbounds %struct.ResourceElem, ptr %120, i64 %122
  %124 = getelementptr inbounds nuw %struct.ResourceElem, ptr %123, i32 0, i32 1
  store ptr null, ptr %124, align 8
  %125 = load ptr, ptr %3, align 8
  %126 = getelementptr inbounds nuw %struct.ResourceOwnerData, ptr %125, i32 0, i32 8
  %127 = load i32, ptr %126, align 4
  %128 = add i32 %127, -1
  store i32 %128, ptr %126, align 4
  %129 = load ptr, ptr %4, align 8
  %130 = getelementptr inbounds nuw %struct.ResourceOwnerDesc, ptr %129, i32 0, i32 3
  %131 = load ptr, ptr %130, align 8
  %132 = load i64, ptr %8, align 8
  call void %131(i64 noundef %132)
  call void @llvm.lifetime.end.p0(i64 8, ptr %8) #6
  br label %133

133:                                              ; preds = %102, %91
  br label %134

134:                                              ; preds = %133
  %135 = load i32, ptr %7, align 4
  %136 = add i32 %135, 1
  store i32 %136, ptr %7, align 4
  br label %84, !llvm.loop !14

137:                                              ; preds = %90
  %138 = load ptr, ptr %3, align 8
  %139 = getelementptr inbounds nuw %struct.ResourceOwnerData, ptr %138, i32 0, i32 4
  store i8 0, ptr %139, align 8
  ret void
}