; Function Attrs: nounwind uwtable
define dso_local void @ResourceOwnerReleaseAllOfKind(ptr noundef captures(none) %0, ptr noundef readonly captures(address) %1) local_unnamed_addr #0 {
  %3 = getelementptr inbounds nuw i8, ptr %0, i64 32
  %4 = load i8, ptr %3, align 8, !range !4, !noundef !5
  %5 = trunc nuw i8 %4 to i1
  br i1 %5, label %6, label %10

6:                                                ; preds = %2
  %7 = tail call zeroext i1 @errstart_cold(i32 noundef 21, ptr noundef null) #11
  tail call void @llvm.assume(i1 %7)
  %8 = load ptr, ptr %1, align 8
  %9 = tail call i32 (ptr, ...) @errmsg_internal(ptr noundef nonnull @.str.3, ptr noundef %8) #10
  tail call void @errfinish(ptr noundef nonnull @.str.1, i32 noundef 805, ptr noundef nonnull @__func__.ResourceOwnerReleaseAllOfKind) #10
  unreachable

10:                                               ; preds = %2
  store i8 1, ptr %3, align 8
  %11 = getelementptr inbounds nuw i8, ptr %0, i64 35
  %12 = load i8, ptr %11, align 1
  %.not = icmp eq i8 %12, 0
  br i1 %.not, label %.preheader, label %.lr.ph

.lr.ph:                                           ; preds = %10
  %13 = zext i8 %12 to i32
  %14 = getelementptr inbounds nuw i8, ptr %0, i64 40
  %15 = getelementptr inbounds nuw i8, ptr %1, i64 16
  br label %21

.preheader:                                       ; preds = %38, %10
  %16 = getelementptr inbounds nuw i8, ptr %0, i64 560
  %17 = load i32, ptr %16, align 8
  %.not41 = icmp eq i32 %17, 0
  br i1 %.not41, label %._crit_edge, label %.lr.ph40

.lr.ph40:                                         ; preds = %.preheader
  %18 = getelementptr inbounds nuw i8, ptr %0, i64 552
  %19 = getelementptr inbounds nuw i8, ptr %0, i64 36
  %20 = getelementptr inbounds nuw i8, ptr %1, i64 16
  br label %43

21:                                               ; preds = %.lr.ph, %38
  %22 = phi i8 [ %12, %.lr.ph ], [ %39, %38 ]
  %23 = phi i32 [ %13, %.lr.ph ], [ %41, %38 ]
  %.038 = phi i32 [ 0, %.lr.ph ], [ %40, %38 ]
  %24 = sext i32 %.038 to i64
  %25 = getelementptr inbounds [32 x %struct.ResourceElem], ptr %14, i64 0, i64 %24
  %26 = getelementptr inbounds nuw i8, ptr %25, i64 8
  %27 = load ptr, ptr %26, align 8
  %28 = icmp eq ptr %27, %1
  br i1 %28, label %29, label %38

29:                                               ; preds = %21
  %30 = load i64, ptr %25, align 8
  %31 = add nsw i32 %23, -1
  %32 = sext i32 %31 to i64
  %33 = getelementptr inbounds [32 x %struct.ResourceElem], ptr %14, i64 0, i64 %32
  tail call void @llvm.memcpy.p0.p0.i64(ptr noundef nonnull align 8 dereferenceable(16) %25, ptr noundef nonnull align 8 dereferenceable(16) %33, i64 16, i1 false)
  %34 = load i8, ptr %11, align 1
  %35 = add i8 %34, -1
  store i8 %35, ptr %11, align 1
  %36 = add i32 %.038, -1
  %37 = load ptr, ptr %15, align 8
  tail call void %37(i64 noundef %30) #10
  %.pre = load i8, ptr %11, align 1
  br label %38

38:                                               ; preds = %21, %29
  %39 = phi i8 [ %.pre, %29 ], [ %22, %21 ]
  %.1 = phi i32 [ %36, %29 ], [ %.038, %21 ]
  %40 = add i32 %.1, 1
  %41 = zext i8 %39 to i32
  %42 = icmp slt i32 %40, %41
  br i1 %42, label %21, label %.preheader, !llvm.loop !15

._crit_edge:                                      ; preds = %58, %.preheader
  store i8 0, ptr %3, align 8
  ret void

43:                                               ; preds = %.lr.ph40, %58
  %44 = phi i32 [ %17, %.lr.ph40 ], [ %59, %58 ]
  %.03439 = phi i32 [ 0, %.lr.ph40 ], [ %60, %58 ]
  %45 = load ptr, ptr %18, align 8
  %46 = sext i32 %.03439 to i64
  %47 = getelementptr inbounds %struct.ResourceElem, ptr %45, i64 %46
  %48 = getelementptr inbounds nuw i8, ptr %47, i64 8
  %49 = load ptr, ptr %48, align 8
  %50 = icmp eq ptr %49, %1
  br i1 %50, label %51, label %58

51:                                               ; preds = %43
  %52 = load i64, ptr %47, align 8
  store i64 0, ptr %47, align 8
  %53 = load ptr, ptr %18, align 8
  %54 = getelementptr inbounds %struct.ResourceElem, ptr %53, i64 %46, i32 1
  store ptr null, ptr %54, align 8
  %55 = load i32, ptr %19, align 4
  %56 = add i32 %55, -1
  store i32 %56, ptr %19, align 4
  %57 = load ptr, ptr %20, align 8
  tail call void %57(i64 noundef %52) #10
  %.pre42 = load i32, ptr %16, align 8
  br label %58

58:                                               ; preds = %43, %51
  %59 = phi i32 [ %44, %43 ], [ %.pre42, %51 ]
  %60 = add nuw i32 %.03439, 1
  %61 = icmp ult i32 %60, %59
  br i1 %61, label %43, label %._crit_edge, !llvm.loop !16
}